target datalayout = "e-m:e-p270:32:32-p271:32:32-p272:64:64-i64:64-i128:128-f80:128-n8:16:32:64-S128"
target triple = "x86_64-pc-linux-gnu"

%struct.Hop_Obj_t_ = type { %union.anon, %union.anon.0, ptr, ptr, i32, i32 }
%union.anon = type { ptr }
%union.anon.0 = type { ptr }

; Function Attrs: inlinehint nounwind uwtable
define internal i32 @Hop_ObjFaninC1(ptr noundef %0) #2 {
  %2 = alloca ptr, align 8
  store ptr %0, ptr %2, align 8, !tbaa !19
  %3 = load ptr, ptr %2, align 8, !tbaa !19
  %4 = getelementptr inbounds nuw %struct.Hop_Obj_t_, ptr %3, i32 0, i32 3
  %5 = load ptr, ptr %4, align 8, !tbaa !34
  %6 = call i32 @Hop_IsComplement(ptr noundef %5)
  ret i32 %6
}

; Function Attrs: inlinehint nounwind uwtable
define internal i32 @Hop_ObjFaninC0(ptr noundef %0) #2 {
  %2 = alloca ptr, align 8
  store ptr %0, ptr %2, align 8, !tbaa !19
  %3 = load ptr, ptr %2, align 8, !tbaa !19
  %4 = getelementptr inbounds nuw %struct.Hop_Obj_t_, ptr %3, i32 0, i32 2
  %5 = load ptr, ptr %4, align 8, !tbaa !33
  %6 = call i32 @Hop_IsComplement(ptr noundef %5)
  ret i32 %6
}

; Function Attrs: inlinehint nounwind uwtable
define internal ptr @Hop_ObjFanin1(ptr noundef %0) #2 {
  %2 = alloca ptr, align 8
  store ptr %0, ptr %2, align 8, !tbaa !19
  %3 = load ptr, ptr %2, align 8, !tbaa !19
  %4 = getelementptr inbounds nuw %struct.Hop_Obj_t_, ptr %3, i32 0, i32 3
  %5 = load ptr, ptr %4, align 8, !tbaa !34
  %6 = call ptr @Hop_Regular(ptr noundef %5)
  ret ptr %6
}

; Function Attrs: inlinehint nounwind uwtable
define internal ptr @Hop_ObjFanin0(ptr noundef %0) #2 {
  %2 = alloca ptr, align 8
  store ptr %0, ptr %2, align 8, !tbaa !19
  %3 = load ptr, ptr %2, align 8, !tbaa !19
  %4 = getelementptr inbounds nuw %struct.Hop_Obj_t_, ptr %3, i32 0, i32 2
  %5 = load ptr, ptr %4, align 8, !tbaa !33
  %6 = call ptr @Hop_Regular(ptr noundef %5)
  ret ptr %6
}

; Function Attrs: inlinehint nounwind uwtable
define internal i32 @Hop_ObjIsAnd(ptr noundef %0) #2 {
  %2 = alloca ptr, align 8
  store ptr %0, ptr %2, align 8, !tbaa !19
  %3 = load ptr, ptr %2, align 8, !tbaa !19
  %4 = getelementptr inbounds nuw %struct.Hop_Obj_t_, ptr %3, i32 0, i32 4
  %5 = load i32, ptr %4, align 8
  %6 = and i32 %5, 7
  %7 = icmp eq i32 %6, 4
  %8 = zext i1 %7 to i32
  ret i32 %8
}

; Function Attrs: inlinehint nounwind uwtable
define internal ptr @Hop_Regular(ptr noundef %0) #2 {
  %2 = alloca ptr, align 8
  store ptr %0, ptr %2, align 8, !tbaa !19
  %3 = load ptr, ptr %2, align 8, !tbaa !19
  %4 = ptrtoint ptr %3 to i64
  %5 = and i64 %4, -2
  %6 = inttoptr i64 %5 to ptr
  ret ptr %6
}

; Function Attrs: inlinehint nounwind uwtable
define internal i32 @Hop_IsComplement(ptr noundef %0) #2 {
  %2 = alloca ptr, align 8
  store ptr %0, ptr %2, align 8, !tbaa !19
  %3 = load ptr, ptr %2, align 8, !tbaa !19
  %4 = ptrtoint ptr %3 to i64
  %5 = and i64 %4, 1
  %6 = trunc i64 %5 to i32
  ret i32 %6
}

; Function Attrs: inlinehint nounwind uwtable
define internal ptr @Hop_ObjChild1(ptr noundef %0) #2 {
  %2 = alloca ptr, align 8
  store ptr %0, ptr %2, align 8, !tbaa !19
  %3 = load ptr, ptr %2, align 8, !tbaa !19
  %4 = getelementptr inbounds nuw %struct.Hop_Obj_t_, ptr %3, i32 0, i32 3
  %5 = load ptr, ptr %4, align 8, !tbaa !34
  ret ptr %5
}

; Function Attrs: inlinehint nounwind uwtable
define internal ptr @Hop_ObjChild0(ptr noundef %0) #2 {
  %2 = alloca ptr, align 8
  store ptr %0, ptr %2, align 8, !tbaa !19
  %3 = load ptr, ptr %2, align 8, !tbaa !19
  %4 = getelementptr inbounds nuw %struct.Hop_Obj_t_, ptr %3, i32 0, i32 2
  %5 = load ptr, ptr %4, align 8, !tbaa !33
  ret ptr %5
}

; Function Attrs: inlinehint nounwind uwtable
define internal i32 @Hop_ObjIsExor(ptr noundef %0) #2 {
  %2 = alloca ptr, align 8
  store ptr %0, ptr %2, align 8, !tbaa !19
  %3 = load ptr, ptr %2, align 8, !tbaa !19
  %4 = getelementptr inbounds nuw %struct.Hop_Obj_t_, ptr %3, i32 0, i32 4
  %5 = load i32, ptr %4, align 8
  %6 = and i32 %5, 7
  %7 = icmp eq i32 %6, 5
  %8 = zext i1 %7 to i32
  ret i32 %8
}

; Function Attrs: inlinehint nounwind uwtable
define internal i32 @Hop_ObjIsNode(ptr noundef %0) #2 {
  %2 = alloca ptr, align 8
  store ptr %0, ptr %2, align 8, !tbaa !19
  %3 = load ptr, ptr %2, align 8, !tbaa !19
  %4 = getelementptr inbounds nuw %struct.Hop_Obj_t_, ptr %3, i32 0, i32 4
  %5 = load i32, ptr %4, align 8
  %6 = and i32 %5, 7
  %7 = icmp eq i32 %6, 4
  br i1 %7, label %14, label %8

8:                                                ; preds = %1
  %9 = load ptr, ptr %2, align 8, !tbaa !19
  %10 = getelementptr inbounds nuw %struct.Hop_Obj_t_, ptr %9, i32 0, i32 4
  %11 = load i32, ptr %10, align 8
  %12 = and i32 %11, 7
  %13 = icmp eq i32 %12, 5
  br label %14

14:                                               ; preds = %8, %1
  %15 = phi i1 [ true, %1 ], [ %13, %8 ]
  %16 = zext i1 %15 to i32
  ret i32 %16
}

; Function Attrs: nounwind uwtable
define i32 @Hop_ObjRecognizeExor(ptr noundef %0, ptr noundef %1, ptr noundef %2) #0 {
  %4 = alloca i32, align 4
  %5 = alloca ptr, align 8
  %6 = alloca ptr, align 8
  %7 = alloca ptr, align 8
  %8 = alloca ptr, align 8
  %9 = alloca ptr, align 8
  %10 = alloca i32, align 4
  store ptr %0, ptr %5, align 8, !tbaa !19
  store ptr %1, ptr %6, align 8, !tbaa !36
  store ptr %2, ptr %7, align 8, !tbaa !36
  call void @llvm.lifetime.start.p0(i64 8, ptr %8) #7
  call void @llvm.lifetime.start.p0(i64 8, ptr %9) #7
  %11 = load ptr, ptr %5, align 8, !tbaa !19
  %12 = call i32 @Hop_ObjIsNode(ptr noundef %11)
  %13 = icmp ne i32 %12, 0
  br i1 %13, label %15, label %14

14:                                               ; preds = %3
  store i32 0, ptr %4, align 4
  store i32 1, ptr %10, align 4
  br label %85

15:                                               ; preds = %3
  %16 = load ptr, ptr %5, align 8, !tbaa !19
  %17 = call i32 @Hop_ObjIsExor(ptr noundef %16)
  %18 = icmp ne i32 %17, 0
  br i1 %18, label %19, label %26

19:                                               ; preds = %15
  %20 = load ptr, ptr %5, align 8, !tbaa !19
  %21 = call ptr @Hop_ObjChild0(ptr noundef %20)
  %22 = load ptr, ptr %6, align 8, !tbaa !36
  store ptr %21, ptr %22, align 8, !tbaa !19
  %23 = load ptr, ptr %5, align 8, !tbaa !19
  %24 = call ptr @Hop_ObjChild1(ptr noundef %23)
  %25 = load ptr, ptr %7, align 8, !tbaa !36
  store ptr %24, ptr %25, align 8, !tbaa !19
  store i32 1, ptr %4, align 4
  store i32 1, ptr %10, align 4
  br label %85

26:                                               ; preds = %15
  %27 = load ptr, ptr %5, align 8, !tbaa !19
  %28 = call ptr @Hop_ObjChild0(ptr noundef %27)
  store ptr %28, ptr %8, align 8, !tbaa !19
  %29 = load ptr, ptr %5, align 8, !tbaa !19
  %30 = call ptr @Hop_ObjChild1(ptr noundef %29)
  store ptr %30, ptr %9, align 8, !tbaa !19
  %31 = load ptr, ptr %8, align 8, !tbaa !19
  %32 = call i32 @Hop_IsComplement(ptr noundef %31)
  %33 = icmp ne i32 %32, 0
  br i1 %33, label %34, label %38

34:                                               ; preds = %26
  %35 = load ptr, ptr %9, align 8, !tbaa !19
  %36 = call i32 @Hop_IsComplement(ptr noundef %35)
  %37 = icmp ne i32 %36, 0
  br i1 %37, label %39, label %38

38:                                               ; preds = %34, %26
  store i32 0, ptr %4, align 4
  store i32 1, ptr %10, align 4
  br label %85

39:                                               ; preds = %34
  %40 = load ptr, ptr %8, align 8, !tbaa !19
  %41 = call ptr @Hop_Regular(ptr noundef %40)
  store ptr %41, ptr %8, align 8, !tbaa !19
  %42 = load ptr, ptr %9, align 8, !tbaa !19
  %43 = call ptr @Hop_Regular(ptr noundef %42)
  store ptr %43, ptr %9, align 8, !tbaa !19
  %44 = load ptr, ptr %8, align 8, !tbaa !19
  %45 = call i32 @Hop_ObjIsAnd(ptr noundef %44)
  %46 = icmp ne i32 %45, 0
  br i1 %46, label %47, label %51

47:                                               ; preds = %39
  %48 = load ptr, ptr %9, align 8, !tbaa !19
  %49 = call i32 @Hop_ObjIsAnd(ptr noundef %48)
  %50 = icmp ne i32 %49, 0
  br i1 %50, label %52, label %51

51:                                               ; preds = %47, %39
  store i32 0, ptr %4, align 4
  store i32 1, ptr %10, align 4
  br label %85

52:                                               ; preds = %47
  %53 = load ptr, ptr %8, align 8, !tbaa !19
  %54 = call ptr @Hop_ObjFanin0(ptr noundef %53)
  %55 = load ptr, ptr %9, align 8, !tbaa !19
  %56 = call ptr @Hop_ObjFanin0(ptr noundef %55)
  %57 = icmp ne ptr %54, %56
  br i1 %57, label %64, label %58

58:                                               ; preds = %52
  %59 = load ptr, ptr %8, align 8, !tbaa !19
  %60 = call ptr @Hop_ObjFanin1(ptr noundef %59)
  %61 = load ptr, ptr %9, align 8, !tbaa !19
  %62 = call ptr @Hop_ObjFanin1(ptr noundef %61)
  %63 = icmp ne ptr %60, %62
  br i1 %63, label %64, label %65

64:                                               ; preds = %58, %52
  store i32 0, ptr %4, align 4
  store i32 1, ptr %10, align 4
  br label %85

65:                                               ; preds = %58
  %66 = load ptr, ptr %8, align 8, !tbaa !19
  %67 = call i32 @Hop_ObjFaninC0(ptr noundef %66)
  %68 = load ptr, ptr %9, align 8, !tbaa !19
  %69 = call i32 @Hop_ObjFaninC0(ptr noundef %68)
  %70 = icmp eq i32 %67, %69
  br i1 %70, label %77, label %71

71:                                               ; preds = %65
  %72 = load ptr, ptr %8, align 8, !tbaa !19
  %73 = call i32 @Hop_ObjFaninC1(ptr noundef %72)
  %74 = load ptr, ptr %9, align 8, !tbaa !19
  %75 = call i32 @Hop_ObjFaninC1(ptr noundef %74)
  %76 = icmp eq i32 %73, %75
  br i1 %76, label %77, label %78

77:                                               ; preds = %71, %65
  store i32 0, ptr %4, align 4
  store i32 1, ptr %10, align 4
  br label %85

78:                                               ; preds = %71
  %79 = load ptr, ptr %8, align 8, !tbaa !19
  %80 = call ptr @Hop_ObjChild0(ptr noundef %79)
  %81 = load ptr, ptr %6, align 8, !tbaa !36
  store ptr %80, ptr %81, align 8, !tbaa !19
  %82 = load ptr, ptr %8, align 8, !tbaa !19
  %83 = call ptr @Hop_ObjChild1(ptr noundef %82)
  %84 = load ptr, ptr %7, align 8, !tbaa !36
  store ptr %83, ptr %84, align 8, !tbaa !19
  store i32 1, ptr %4, align 4
  store i32 1, ptr %10, align 4
  br label %85

85:                                               ; preds = %78, %77, %64, %51, %38, %19, %14
  call void @llvm.lifetime.end.p0(i64 8, ptr %9) #7
  call void @llvm.lifetime.end.p0(i64 8, ptr %8) #7
  %86 = load i32, ptr %4, align 4
  ret i32 %86
}