; Function Attrs: mustprogress nofree norecurse nosync nounwind willreturn memory(read, argmem: readwrite, inaccessiblemem: none) uwtable
define range(i32 0, 2) i32 @Hop_ObjRecognizeExor(ptr noundef readonly captures(none) %0, ptr noundef writeonly captures(none) %1, ptr noundef writeonly captures(none) %2) local_unnamed_addr #5 {
  %4 = getelementptr i8, ptr %0, i64 32
  %.val48 = load i32, ptr %4, align 8
  %5 = and i32 %.val48, 6
  %narrow.i.not = icmp eq i32 %5, 4
  br i1 %narrow.i.not, label %6, label %43

6:                                                ; preds = %3
  %7 = and i32 %.val48, 5
  %.not = icmp eq i32 %7, 5
  %8 = getelementptr i8, ptr %0, i64 16
  %.val40 = load ptr, ptr %8, align 8, !tbaa !29
  br i1 %.not, label %9, label %11

9:                                                ; preds = %6
  store ptr %.val40, ptr %1, align 8, !tbaa !27
  %10 = getelementptr i8, ptr %0, i64 24
  br label %.sink.split

11:                                               ; preds = %6
  %12 = ptrtoint ptr %.val40 to i64
  %13 = and i64 %12, 1
  %.not27 = icmp eq i64 %13, 0
  br i1 %.not27, label %43, label %14

14:                                               ; preds = %11
  %15 = getelementptr i8, ptr %0, i64 24
  %.val42 = load ptr, ptr %15, align 8, !tbaa !30
  %16 = ptrtoint ptr %.val42 to i64
  %17 = and i64 %16, 1
  %.not28 = icmp eq i64 %17, 0
  br i1 %.not28, label %43, label %18

18:                                               ; preds = %14
  %19 = and i64 %12, -2
  %20 = inttoptr i64 %19 to ptr
  %21 = and i64 %16, -2
  %22 = inttoptr i64 %21 to ptr
  %23 = getelementptr i8, ptr %20, i64 32
  %.val33 = load i32, ptr %23, align 8
  %24 = and i32 %.val33, 7
  %.not50 = icmp eq i32 %24, 4
  br i1 %.not50, label %25, label %43

25:                                               ; preds = %18
  %26 = getelementptr i8, ptr %22, i64 32
  %.val = load i32, ptr %26, align 8
  %27 = and i32 %.val, 7
  %.not51 = icmp eq i32 %27, 4
  br i1 %.not51, label %28, label %43

28:                                               ; preds = %25
  %29 = getelementptr i8, ptr %20, i64 16
  %.val35 = load ptr, ptr %29, align 8, !tbaa !29
  %30 = ptrtoint ptr %.val35 to i64
  %31 = getelementptr i8, ptr %22, i64 16
  %.val34 = load ptr, ptr %31, align 8, !tbaa !29
  %32 = ptrtoint ptr %.val34 to i64
  %33 = xor i64 %32, %30
  %.not31 = icmp ult i64 %33, 2
  br i1 %.not31, label %34, label %43

34:                                               ; preds = %28
  %35 = getelementptr i8, ptr %20, i64 24
  %.val37 = load ptr, ptr %35, align 8, !tbaa !30
  %36 = ptrtoint ptr %.val37 to i64
  %37 = getelementptr i8, ptr %22, i64 24
  %.val36 = load ptr, ptr %37, align 8, !tbaa !30
  %38 = ptrtoint ptr %.val36 to i64
  %39 = xor i64 %38, %36
  %.not32 = icmp ugt i64 %39, 1
  %40 = icmp eq ptr %.val34, %.val35
  %or.cond = or i1 %.not32, %40
  %41 = icmp eq ptr %.val36, %.val37
  %or.cond52 = or i1 %or.cond, %41
  br i1 %or.cond52, label %43, label %42

42:                                               ; preds = %34
  store ptr %.val35, ptr %1, align 8, !tbaa !27
  br label %.sink.split

.sink.split:                                      ; preds = %9, %42
  %.val41.sink.in = phi ptr [ %35, %42 ], [ %10, %9 ]
  %.val41.sink = load ptr, ptr %.val41.sink.in, align 8, !tbaa !30
  store ptr %.val41.sink, ptr %2, align 8, !tbaa !27
  br label %43

43:                                               ; preds = %.sink.split, %28, %34, %18, %25, %11, %14, %3
  %.0 = phi i32 [ 0, %3 ], [ 0, %14 ], [ 0, %11 ], [ 0, %25 ], [ 0, %18 ], [ 0, %34 ], [ 0, %28 ], [ 1, %.sink.split ]
  ret i32 %.0
}